; Function Attrs: mustprogress nofree nosync nounwind memory(readwrite, inaccessiblemem: none) uwtable
define dso_local void @_ZN4Luau7CodeGen4killERNS0_10IrFunctionERNS0_7IrBlockE(ptr noundef nonnull align 8 dereferenceable(624) %0, ptr noundef nonnull align 4 captures(none) dereferenceable(32) initializes((0, 1)) %1) local_unnamed_addr #2 {
  store i8 4, ptr %1, align 4, !tbaa !29
  %3 = getelementptr inbounds nuw i8, ptr %1, i64 4
  %4 = load i32, ptr %3, align 4, !tbaa !30
  %5 = getelementptr inbounds nuw i8, ptr %1, i64 8
  %6 = load i32, ptr %5, align 4, !tbaa !31
  %.not.i6 = icmp slt i32 %6, %4
  br i1 %.not.i6, label %_ZN4Luau7CodeGen4killERNS0_10IrFunctionEjj.exit, label %.lr.ph

.lr.ph:                                           ; preds = %2
  %7 = getelementptr inbounds nuw i8, ptr %0, i64 24
  %8 = sext i32 %6 to i64
  %9 = sext i32 %4 to i64
  br label %10

10:                                               ; preds = %.lr.ph, %16
  %indvars.iv = phi i64 [ %8, %.lr.ph ], [ %indvars.iv.next, %16 ]
  %11 = load ptr, ptr %7, align 8, !tbaa !4
  %12 = getelementptr inbounds nuw %"struct.Luau::CodeGen::IrInst", ptr %11, i64 %indvars.iv
  %13 = load i8, ptr %12, align 4, !tbaa !32
  %14 = icmp eq i8 %13, 0
  br i1 %14, label %16, label %15

15:                                               ; preds = %10
  tail call void @_ZN4Luau7CodeGen4killERNS0_10IrFunctionERNS0_6IrInstE(ptr noundef nonnull align 8 dereferenceable(624) %0, ptr noundef nonnull align 4 dereferenceable(43) %12)
  br label %16

16:                                               ; preds = %15, %10
  %indvars.iv.next = add nsw i64 %indvars.iv, -1
  %.not.i.not = icmp sgt i64 %indvars.iv, %9
  br i1 %.not.i.not, label %10, label %_ZN4Luau7CodeGen4killERNS0_10IrFunctionEjj.exit, !llvm.loop !33

_ZN4Luau7CodeGen4killERNS0_10IrFunctionEjj.exit:  ; preds = %16, %2
  store i32 -1, ptr %3, align 4, !tbaa !30
  store i32 -1, ptr %5, align 4, !tbaa !31
  ret void
}